target datalayout = "e-m:e-p270:32:32-p271:32:32-p272:64:64-i64:64-i128:128-f80:128-n8:16:32:64-S128"
target triple = "x86_64-pc-linux-gnu"

; Function Attrs: nounwind sspstrong uwtable
define hidden void @pm_visit_node(ptr noundef %0, ptr noundef %1, ptr noundef %2) #0 {
  %4 = alloca ptr, align 8
  %5 = alloca ptr, align 8
  %6 = alloca ptr, align 8
  store ptr %0, ptr %4, align 8, !tbaa !12
  store ptr %1, ptr %5, align 8, !tbaa !24
  store ptr %2, ptr %6, align 8, !tbaa !24
  %7 = load ptr, ptr %5, align 8, !tbaa !24
  %8 = load ptr, ptr %4, align 8, !tbaa !12
  %9 = load ptr, ptr %6, align 8, !tbaa !24
  %10 = call zeroext i1 %7(ptr noundef %8, ptr noundef %9)
  br i1 %10, label %11, label %15

11:                                               ; preds = %3
  %12 = load ptr, ptr %4, align 8, !tbaa !12
  %13 = load ptr, ptr %5, align 8, !tbaa !24
  %14 = load ptr, ptr %6, align 8, !tbaa !24
  call void @pm_visit_child_nodes(ptr noundef %12, ptr noundef %13, ptr noundef %14)
  br label %15

15:                                               ; preds = %11, %3
  ret void
}