; Function Attrs: nounwind sspstrong uwtable
define hidden void @pm_visit_node(ptr noundef %0, ptr noundef %1, ptr noundef %2) local_unnamed_addr #0 {
  %4 = tail call zeroext i1 %1(ptr noundef %0, ptr noundef %2) #9
  br i1 %4, label %5, label %6

5:                                                ; preds = %3
  tail call void @pm_visit_child_nodes(ptr noundef %0, ptr noundef %1, ptr noundef %2)
  br label %6

6:                                                ; preds = %5, %3
  ret void
}